; Function Attrs: nounwind uwtable
define noundef ptr @l_Lean_Compiler_LCNF_ScopeM_withBackTrackingScope___rarg___lambda__1___boxed(ptr noundef returned %0, ptr noundef %1) #0 {
  %3 = ptrtoint ptr %0 to i64
  %4 = and i64 %3, 1
  %.not.i8 = icmp eq i64 %4, 0
  br i1 %.not.i8, label %5, label %l_Lean_Compiler_LCNF_ScopeM_withBackTrackingScope___rarg___lambda__1.exit

5:                                                ; preds = %2
  %.val.i.i = load i32, ptr %0, align 4, !tbaa !4
  %6 = icmp sgt i32 %.val.i.i, 0
  br i1 %6, label %7, label %9, !prof !11

7:                                                ; preds = %5
  %8 = add nuw i32 %.val.i.i, 1
  store i32 %8, ptr %0, align 4, !tbaa !4
  br label %l_Lean_Compiler_LCNF_ScopeM_withBackTrackingScope___rarg___lambda__1.exit

9:                                                ; preds = %5
  %.not.i.i = icmp eq i32 %.val.i.i, 0
  br i1 %.not.i.i, label %l_Lean_Compiler_LCNF_ScopeM_withBackTrackingScope___rarg___lambda__1.exit, label %10

10:                                               ; preds = %9
  tail call void @lean_inc_ref_cold(ptr noundef nonnull %0) #3
  br label %l_Lean_Compiler_LCNF_ScopeM_withBackTrackingScope___rarg___lambda__1.exit

l_Lean_Compiler_LCNF_ScopeM_withBackTrackingScope___rarg___lambda__1.exit: ; preds = %2, %7, %9, %10
  %11 = ptrtoint ptr %1 to i64
  %12 = and i64 %11, 1
  %.not = icmp eq i64 %12, 0
  br i1 %.not, label %13, label %lean_dec.exit5

13:                                               ; preds = %l_Lean_Compiler_LCNF_ScopeM_withBackTrackingScope___rarg___lambda__1.exit
  %14 = load i32, ptr %1, align 4, !tbaa !4
  %15 = icmp sgt i32 %14, 1
  br i1 %15, label %16, label %18, !prof !11

16:                                               ; preds = %13
  %17 = add nsw i32 %14, -1
  store i32 %17, ptr %1, align 4, !tbaa !4
  br label %lean_dec.exit5

18:                                               ; preds = %13
  %.not.i = icmp eq i32 %14, 0
  br i1 %.not.i, label %lean_dec.exit5, label %19

19:                                               ; preds = %18
  tail call void @lean_dec_ref_cold(ptr noundef nonnull %1) #3
  br label %lean_dec.exit5

lean_dec.exit5:                                   ; preds = %19, %18, %16, %l_Lean_Compiler_LCNF_ScopeM_withBackTrackingScope___rarg___lambda__1.exit
  br i1 %.not.i8, label %20, label %lean_dec.exit

20:                                               ; preds = %lean_dec.exit5
  %21 = load i32, ptr %0, align 4, !tbaa !4
  %22 = icmp sgt i32 %21, 1
  br i1 %22, label %23, label %25, !prof !11

23:                                               ; preds = %20
  %24 = add nsw i32 %21, -1
  store i32 %24, ptr %0, align 4, !tbaa !4
  br label %lean_dec.exit

25:                                               ; preds = %20
  %.not.i6 = icmp eq i32 %21, 0
  br i1 %.not.i6, label %lean_dec.exit, label %26

26:                                               ; preds = %25
  tail call void @lean_dec_ref_cold(ptr noundef nonnull %0) #3
  br label %lean_dec.exit

lean_dec.exit:                                    ; preds = %26, %25, %23, %lean_dec.exit5
  ret ptr %0
}